; Function Attrs: mustprogress uwtable
define hidden noundef nonnull align 8 dereferenceable(8) ptr @_Z11ast_smt2_ppRSojPKP4exprR19smt2_pp_environmentRK10params_refjjPKc(ptr noundef nonnull returned align 8 dereferenceable(8) %out, i32 noundef %sz, ptr nocapture noundef readonly %es, ptr noundef nonnull align 8 dereferenceable(56) %env, ptr noundef nonnull align 8 dereferenceable(8) %p, i32 noundef %indent, i32 noundef %num_vars, ptr noundef %var_prefix) local_unnamed_addr #3 personality ptr @__gxx_personality_v0 {
entry:
  %r = alloca %class.obj_ref, align 8
  %var_names = alloca %class.sbuffer.113, align 8
  %vtable = load ptr, ptr %env, align 8
  %vfn = getelementptr inbounds i8, ptr %vtable, i64 16
  %0 = load ptr, ptr %vfn, align 8
  %call = tail call noundef nonnull align 8 dereferenceable(976) ptr %0(ptr noundef nonnull align 8 dereferenceable(56) %env)
  %m_format_manager.i.i.i = getelementptr inbounds i8, ptr %call, i64 928
  %1 = load ptr, ptr %m_format_manager.i.i.i, align 8
  %cmp.i.i.i = icmp eq ptr %1, null
  %cond-lvalue.i.i = select i1 %cmp.i.i.i, ptr %call, ptr %1
  store ptr null, ptr %r, align 8
  %m_manager.i = getelementptr inbounds i8, ptr %r, i64 8
  store ptr %cond-lvalue.i.i, ptr %m_manager.i, align 8
  %2 = getelementptr inbounds i8, ptr %var_names, i64 16
  call void @llvm.memset.p0.i64(ptr noundef nonnull align 8 dereferenceable(144) %2, i8 0, i64 128, i1 false)
  store ptr %2, ptr %var_names, align 8
  %m_pos.i.i = getelementptr inbounds i8, ptr %var_names, i64 8
  store i32 0, ptr %m_pos.i.i, align 8
  %m_capacity.i.i = getelementptr inbounds i8, ptr %var_names, i64 12
  store i32 16, ptr %m_capacity.i.i, align 4
  invoke void @_Z14mk_smt2_formatjPKP4exprR19smt2_pp_environmentRK10params_refjPKcR7obj_refI3app11ast_managerER7sbufferI6symbolLj16EE(i32 noundef %sz, ptr noundef %es, ptr noundef nonnull align 8 dereferenceable(56) %env, ptr noundef nonnull align 8 dereferenceable(8) %p, i32 noundef %num_vars, ptr noundef %var_prefix, ptr noundef nonnull align 8 dereferenceable(16) %r, ptr noundef nonnull align 8 dereferenceable(144) %var_names)
          to label %invoke.cont3 unwind label %lpad2

invoke.cont3:                                     ; preds = %entry
  %cmp.not = icmp eq i32 %indent, 0
  %.pre = load ptr, ptr %r, align 8
  br i1 %cmp.not, label %if.end, label %if.then

if.then:                                          ; preds = %invoke.cont3
  %call7 = invoke noundef ptr @_ZN9format_ns9mk_indentER11ast_managerjP3app(ptr noundef nonnull align 8 dereferenceable(976) %call, i32 noundef %indent, ptr noundef %.pre)
          to label %invoke.cont6 unwind label %lpad2

invoke.cont6:                                     ; preds = %if.then
  %tobool.not.i = icmp eq ptr %call7, null
  br i1 %tobool.not.i, label %if.end.i, label %_ZN11ast_manager7inc_refEP3ast.exit.i

_ZN11ast_manager7inc_refEP3ast.exit.i:            ; preds = %invoke.cont6
  %m_ref_count.i.i.i = getelementptr inbounds i8, ptr %call7, i64 8
  %3 = load i32, ptr %m_ref_count.i.i.i, align 4
  %inc.i.i.i = add i32 %3, 1
  store i32 %inc.i.i.i, ptr %m_ref_count.i.i.i, align 4
  br label %if.end.i

if.end.i:                                         ; preds = %_ZN11ast_manager7inc_refEP3ast.exit.i, %invoke.cont6
  %tobool.not.i3.i = icmp eq ptr %.pre, null
  br i1 %tobool.not.i3.i, label %_ZN7obj_refI3app11ast_managerEaSEPS0_.exit, label %if.then.i.i.i

if.then.i.i.i:                                    ; preds = %if.end.i
  %4 = load ptr, ptr %m_manager.i, align 8
  %m_ref_count.i.i.i.i = getelementptr inbounds i8, ptr %.pre, i64 8
  %5 = load i32, ptr %m_ref_count.i.i.i.i, align 4
  %dec.i.i.i.i = add i32 %5, -1
  store i32 %dec.i.i.i.i, ptr %m_ref_count.i.i.i.i, align 4
  %cmp.i.i.i7 = icmp eq i32 %dec.i.i.i.i, 0
  br i1 %cmp.i.i.i7, label %if.then2.i.i.i, label %_ZN7obj_refI3app11ast_managerEaSEPS0_.exit

if.then2.i.i.i:                                   ; preds = %if.then.i.i.i
  invoke void @_ZN11ast_manager11delete_nodeEP3ast(ptr noundef nonnull align 8 dereferenceable(976) %4, ptr noundef nonnull %.pre)
          to label %_ZN7obj_refI3app11ast_managerEaSEPS0_.exit unwind label %lpad2

_ZN7obj_refI3app11ast_managerEaSEPS0_.exit:       ; preds = %if.then2.i.i.i, %if.end.i, %if.then.i.i.i
  store ptr %call7, ptr %r, align 8
  br label %if.end

lpad2:                                            ; preds = %if.then2.i.i.i, %if.end, %if.then, %entry
  %6 = landingpad { ptr, i32 }
          cleanup
  call void @_ZN7sbufferI6symbolLj16EED2Ev(ptr noundef nonnull align 8 dereferenceable(144) %var_names) #19
  call void @_ZN7obj_refI3app11ast_managerED2Ev(ptr noundef nonnull align 8 dereferenceable(16) %r) #19
  resume { ptr, i32 } %6

if.end:                                           ; preds = %_ZN7obj_refI3app11ast_managerEaSEPS0_.exit, %invoke.cont3
  %7 = phi ptr [ %call7, %_ZN7obj_refI3app11ast_managerEaSEPS0_.exit ], [ %.pre, %invoke.cont3 ]
  invoke void @_Z2ppRSoP3appR11ast_managerRK10params_ref(ptr noundef nonnull align 8 dereferenceable(8) %out, ptr noundef %7, ptr noundef nonnull align 8 dereferenceable(976) %call, ptr noundef nonnull align 8 dereferenceable(8) %p)
          to label %invoke.cont12 unwind label %lpad2

invoke.cont12:                                    ; preds = %if.end
  %8 = load ptr, ptr %var_names, align 8
  %cmp.not.i.i.i.i = icmp eq ptr %8, %2
  %cmp.i.i.i.i.i = icmp eq ptr %8, null
  %or.cond.i.i.i.i = or i1 %cmp.not.i.i.i.i, %cmp.i.i.i.i.i
  br i1 %or.cond.i.i.i.i, label %_ZN7sbufferI6symbolLj16EED2Ev.exit, label %if.end.i.i.i.i.i

if.end.i.i.i.i.i:                                 ; preds = %invoke.cont12
  invoke void @_ZN6memory10deallocateEPv(ptr noundef nonnull %8)
          to label %_ZN7sbufferI6symbolLj16EED2Ev.exit unwind label %terminate.lpad.i.i

terminate.lpad.i.i:                               ; preds = %if.end.i.i.i.i.i
  %9 = landingpad { ptr, i32 }
          catch ptr null
  %10 = extractvalue { ptr, i32 } %9, 0
  call void @__clang_call_terminate(ptr %10) #22
  unreachable

_ZN7sbufferI6symbolLj16EED2Ev.exit:               ; preds = %invoke.cont12, %if.end.i.i.i.i.i
  %tobool.not.i.i = icmp eq ptr %7, null
  br i1 %tobool.not.i.i, label %_ZN7obj_refI3app11ast_managerED2Ev.exit, label %if.then.i.i.i8

if.then.i.i.i8:                                   ; preds = %_ZN7sbufferI6symbolLj16EED2Ev.exit
  %11 = load ptr, ptr %m_manager.i, align 8
  %m_ref_count.i.i.i.i10 = getelementptr inbounds i8, ptr %7, i64 8
  %12 = load i32, ptr %m_ref_count.i.i.i.i10, align 4
  %dec.i.i.i.i11 = add i32 %12, -1
  store i32 %dec.i.i.i.i11, ptr %m_ref_count.i.i.i.i10, align 4
  %cmp.i.i.i12 = icmp eq i32 %dec.i.i.i.i11, 0
  br i1 %cmp.i.i.i12, label %if.then2.i.i.i13, label %_ZN7obj_refI3app11ast_managerED2Ev.exit

if.then2.i.i.i13:                                 ; preds = %if.then.i.i.i8
  invoke void @_ZN11ast_manager11delete_nodeEP3ast(ptr noundef nonnull align 8 dereferenceable(976) %11, ptr noundef nonnull %7)
          to label %_ZN7obj_refI3app11ast_managerED2Ev.exit unwind label %terminate.lpad.i

terminate.lpad.i:                                 ; preds = %if.then2.i.i.i13
  %13 = landingpad { ptr, i32 }
          catch ptr null
  %14 = extractvalue { ptr, i32 } %13, 0
  call void @__clang_call_terminate(ptr %14) #22
  unreachable

_ZN7obj_refI3app11ast_managerED2Ev.exit:          ; preds = %_ZN7sbufferI6symbolLj16EED2Ev.exit, %if.then.i.i.i8, %if.then2.i.i.i13
  ret ptr %out
}